; Function Attrs: null_pointer_is_valid sspstrong uwtable
define internal void @idb_copy_mand(ptr noundef readonly captures(none) %0, ptr noundef readonly captures(none) %1) #0 {
  %3 = alloca ptr, align 8
  call void @llvm.lifetime.start.p0(i64 8, ptr nonnull %3) #19
  %4 = getelementptr inbounds nuw i8, ptr %1, i64 8
  %5 = load ptr, ptr %4, align 8
  %6 = getelementptr inbounds nuw i8, ptr %0, i64 8
  %7 = load ptr, ptr %6, align 8
  %8 = getelementptr inbounds nuw i8, ptr %7, i64 24
  %9 = load i8, ptr %8, align 8
  %.not = icmp eq i8 %9, 0
  br i1 %.not, label %14, label %10

10:                                               ; preds = %2
  %11 = getelementptr inbounds nuw i8, ptr %7, i64 32
  %12 = load ptr, ptr %11, align 8
  %13 = tail call ptr @g_array_free(ptr noundef %12, i32 noundef 1)
  br label %14

14:                                               ; preds = %10, %2
  tail call void @llvm.memcpy.p0.p0.i64(ptr noundef align 1 dereferenceable(40) %7, ptr noundef align 1 dereferenceable(40) %5, i64 noundef 40, i1 noundef false) #19
  %15 = getelementptr inbounds nuw i8, ptr %5, i64 24
  %16 = load i8, ptr %15, align 8
  %.not15 = icmp eq i8 %16, 0
  br i1 %.not15, label %.loopexit, label %17

17:                                               ; preds = %14
  %18 = tail call ptr @g_array_new(i32 noundef 0, i32 noundef 0, i32 noundef 8)
  %19 = getelementptr inbounds nuw i8, ptr %7, i64 32
  store ptr %18, ptr %19, align 8
  %20 = load i8, ptr %15, align 8
  %.not17 = icmp eq i8 %20, 0
  br i1 %.not17, label %.loopexit, label %.lr.ph

.lr.ph:                                           ; preds = %17
  %21 = getelementptr inbounds nuw i8, ptr %5, i64 32
  br label %22

22:                                               ; preds = %.lr.ph, %wtap_block_make_copy.exit
  %indvars.iv = phi i64 [ 0, %.lr.ph ], [ %indvars.iv.next, %wtap_block_make_copy.exit ]
  %23 = load ptr, ptr %21, align 8
  %24 = load ptr, ptr %23, align 8
  %25 = getelementptr ptr, ptr %24, i64 %indvars.iv
  %26 = load ptr, ptr %25, align 8
  %27 = load ptr, ptr %26, align 8
  %28 = load i32, ptr %27, align 8
  %29 = icmp ugt i32 %28, 11
  br i1 %29, label %wtap_block_make_copy.exit, label %30

30:                                               ; preds = %22
  %31 = call noalias dereferenceable_or_null(32) ptr @g_malloc(i64 noundef 32) #16
  %32 = zext nneg i32 %28 to i64
  %33 = getelementptr [12 x ptr], ptr @blocktype_list, i64 0, i64 %32
  %34 = load ptr, ptr %33, align 8
  store ptr %34, ptr %31, align 8
  %35 = call ptr @g_array_new(i32 noundef 0, i32 noundef 0, i32 noundef 48)
  %36 = getelementptr inbounds nuw i8, ptr %31, i64 16
  store ptr %35, ptr %36, align 8
  %37 = getelementptr inbounds nuw i8, ptr %34, i64 24
  %38 = load ptr, ptr %37, align 8
  call void %38(ptr noundef %31)
  %39 = getelementptr inbounds nuw i8, ptr %31, i64 24
  store i32 1, ptr %39, align 8
  br label %wtap_block_make_copy.exit

wtap_block_make_copy.exit:                        ; preds = %22, %30
  %.0.i.i = phi ptr [ %31, %30 ], [ null, %22 ]
  call void @wtap_block_copy(ptr noundef %.0.i.i, ptr noundef %26)
  store ptr %.0.i.i, ptr %3, align 8
  %40 = load ptr, ptr %19, align 8
  %41 = call ptr @g_array_append_vals(ptr noundef %40, ptr noundef nonnull %3, i32 noundef 1)
  store ptr %41, ptr %19, align 8
  %indvars.iv.next = add nuw nsw i64 %indvars.iv, 1
  %42 = load i8, ptr %15, align 8
  %43 = zext i8 %42 to i64
  %44 = icmp samesign ult i64 %indvars.iv.next, %43
  br i1 %44, label %22, label %.loopexit, !llvm.loop !28

.loopexit:                                        ; preds = %wtap_block_make_copy.exit, %17, %14
  call void @llvm.lifetime.end.p0(i64 8, ptr nonnull %3) #19
  ret void
}